; Function Attrs: nounwind uwtable
define internal fastcc range(i32 0, 8) i32 @socket_connect_result(ptr noundef %0, ptr noundef %1, i32 noundef %2) unnamed_addr #2 {
  %4 = alloca [256 x i8], align 16
  switch i32 %2, label %5 [
    i32 115, label %14
    i32 11, label %14
  ]

5:                                                ; preds = %3
  %.not = icmp eq ptr %0, null
  br i1 %.not, label %12, label %6

6:                                                ; preds = %5
  %7 = getelementptr inbounds nuw i8, ptr %0, i64 2642
  %8 = load i64, ptr %7, align 2
  %9 = and i64 %8, 268435456
  %.not9 = icmp eq i64 %9, 0
  br i1 %.not9, label %12, label %10

10:                                               ; preds = %6
  %11 = call ptr @Curl_strerror(i32 noundef %2, ptr noundef nonnull %4, i64 noundef 256) #13
  call void (ptr, ptr, ...) @Curl_infof(ptr noundef nonnull %0, ptr noundef nonnull @.str.31, ptr noundef %1, ptr noundef %11) #13
  br label %12

12:                                               ; preds = %5, %6, %10
  %13 = getelementptr inbounds nuw i8, ptr %0, i64 3340
  store i32 %2, ptr %13, align 4
  br label %14

14:                                               ; preds = %3, %3, %12
  %.0 = phi i32 [ 7, %12 ], [ 0, %3 ], [ 0, %3 ]
  ret i32 %.0
}